target datalayout = "e-m:e-p270:32:32-p271:32:32-p272:64:64-i64:64-i128:128-f80:128-n8:16:32:64-S128"
target triple = "x86_64-pc-linux-gnu"

%union.pthread_mutex_t = type { %struct.__pthread_mutex_s }
%struct.__pthread_mutex_s = type { i32, i32, i32, i32, i32, i16, i16, %struct.__pthread_internal_list }
%struct.__pthread_internal_list = type { ptr, ptr }
%struct.buf_t = type { i32, ptr, i32, i32, i8, i8 }

@.str = private unnamed_addr constant [14 x i8] c"acct_gather.c\00", align 1
@acct_gather_options_buf = internal global ptr null, align 8
@conf_mutex = internal global %union.pthread_mutex_t zeroinitializer, align 8
@.str.5 = private unnamed_addr constant [29 x i8] c"%s: pthread_mutex_lock(): %m\00", align 1
@__func__.acct_gather_write_conf = private unnamed_addr constant [23 x i8] c"acct_gather_write_conf\00", align 1
@.str.6 = private unnamed_addr constant [45 x i8] c"%s:%d: %s: safe_write (%zu of %d) failed: %m\00", align 1
@.str.7 = private unnamed_addr constant [48 x i8] c"%s:%d: %s: safe_write (%zu of %d) partial write\00", align 1
@.str.8 = private unnamed_addr constant [31 x i8] c"%s: pthread_mutex_unlock(): %m\00", align 1

; Function Attrs: nounwind uwtable
define dso_local i32 @acct_gather_write_conf(i32 noundef %0) #0 {
  %2 = alloca i32, align 4
  %3 = alloca i32, align 4
  %4 = alloca i32, align 4
  %5 = alloca i32, align 4
  %6 = alloca i64, align 8
  %7 = alloca ptr, align 8
  %8 = alloca i32, align 4
  %9 = alloca i32, align 4
  %10 = alloca i64, align 8
  %11 = alloca ptr, align 8
  %12 = alloca i32, align 4
  %13 = alloca i32, align 4
  %14 = alloca i32, align 4
  store i32 %0, ptr %3, align 4
  call void @llvm.lifetime.start.p0(i64 4, ptr %4) #6
  %15 = call i32 @acct_gather_conf_init()
  br label %16

16:                                               ; preds = %1
  call void @llvm.lifetime.start.p0(i64 4, ptr %5) #6
  %17 = call i32 @pthread_mutex_lock(ptr noundef @conf_mutex) #6
  store i32 %17, ptr %5, align 4
  %18 = load i32, ptr %5, align 4
  %19 = icmp ne i32 %18, 0
  br i1 %19, label %20, label %23

20:                                               ; preds = %16
  %21 = load i32, ptr %5, align 4
  %22 = call ptr @__errno_location() #8
  store i32 %21, ptr %22, align 4
  call void (ptr, ...) @fatal_abort(ptr noundef @.str.5, ptr noundef @__func__.acct_gather_write_conf) #7
  unreachable

23:                                               ; preds = %16
  call void @llvm.lifetime.end.p0(i64 4, ptr %5) #6
  br label %24

24:                                               ; preds = %23
  br label %25

25:                                               ; preds = %24
  %26 = load ptr, ptr @acct_gather_options_buf, align 8
  %27 = getelementptr inbounds nuw %struct.buf_t, ptr %26, i32 0, i32 3
  %28 = load i32, ptr %27, align 4
  store i32 %28, ptr %4, align 4
  br label %29

29:                                               ; preds = %25
  call void @llvm.lifetime.start.p0(i64 8, ptr %6) #6
  store i64 4, ptr %6, align 8
  call void @llvm.lifetime.start.p0(i64 8, ptr %7) #6
  store ptr %4, ptr %7, align 8
  call void @llvm.lifetime.start.p0(i64 4, ptr %8) #6
  br label %30

30:                                               ; preds = %86, %49, %29
  %31 = load i64, ptr %6, align 8
  %32 = icmp ugt i64 %31, 0
  br i1 %32, label %33, label %87

33:                                               ; preds = %30
  %34 = load i32, ptr %3, align 4
  %35 = load ptr, ptr %7, align 8
  %36 = load i64, ptr %6, align 8
  %37 = call i64 @write(i32 noundef %34, ptr noundef %35, i64 noundef %36)
  %38 = trunc i64 %37 to i32
  store i32 %38, ptr %8, align 4
  %39 = load i32, ptr %8, align 4
  %40 = icmp slt i32 %39, 0
  br i1 %40, label %41, label %62

41:                                               ; preds = %33
  %42 = call ptr @__errno_location() #8
  %43 = load i32, ptr %42, align 4
  %44 = icmp eq i32 %43, 11
  br i1 %44, label %49, label %45

45:                                               ; preds = %41
  %46 = call ptr @__errno_location() #8
  %47 = load i32, ptr %46, align 4
  %48 = icmp eq i32 %47, 4
  br i1 %48, label %49, label %50

49:                                               ; preds = %45, %41
  br label %30, !llvm.loop !13

50:                                               ; preds = %45
  br label %51

51:                                               ; preds = %50
  br label %52

52:                                               ; preds = %51
  %53 = call i32 @get_log_level()
  %54 = icmp sge i32 %53, 5
  br i1 %54, label %55, label %57

55:                                               ; preds = %52
  %56 = load i64, ptr %6, align 8
  call void (i32, ptr, ...) @log_var(i32 noundef 5, ptr noundef @.str.6, ptr noundef @.str, i32 noundef 173, ptr noundef @__func__.acct_gather_write_conf, i64 noundef %56, i32 noundef 4)
  br label %57

57:                                               ; preds = %55, %52
  br label %58

58:                                               ; preds = %57
  br label %59

59:                                               ; preds = %58
  br label %60

60:                                               ; preds = %59
  br label %61

61:                                               ; preds = %60
  store i32 12, ptr %9, align 4
  br label %88

62:                                               ; preds = %33
  %63 = load i32, ptr %8, align 4
  %64 = load ptr, ptr %7, align 8
  %65 = sext i32 %63 to i64
  %66 = getelementptr inbounds i8, ptr %64, i64 %65
  store ptr %66, ptr %7, align 8
  %67 = load i32, ptr %8, align 4
  %68 = sext i32 %67 to i64
  %69 = load i64, ptr %6, align 8
  %70 = sub i64 %69, %68
  store i64 %70, ptr %6, align 8
  %71 = load i64, ptr %6, align 8
  %72 = icmp ugt i64 %71, 0
  br i1 %72, label %73, label %85

73:                                               ; preds = %62
  br label %74

74:                                               ; preds = %73
  br label %75

75:                                               ; preds = %74
  %76 = call i32 @get_log_level()
  %77 = icmp sge i32 %76, 7
  br i1 %77, label %78, label %80

78:                                               ; preds = %75
  %79 = load i64, ptr %6, align 8
  call void (i32, ptr, ...) @log_var(i32 noundef 7, ptr noundef @.str.7, ptr noundef @.str, i32 noundef 173, ptr noundef @__func__.acct_gather_write_conf, i64 noundef %79, i32 noundef 4)
  br label %80

80:                                               ; preds = %78, %75
  br label %81

81:                                               ; preds = %80
  br label %82

82:                                               ; preds = %81
  br label %83

83:                                               ; preds = %82
  br label %84

84:                                               ; preds = %83
  br label %85

85:                                               ; preds = %84, %62
  br label %86

86:                                               ; preds = %85
  br label %30, !llvm.loop !13

87:                                               ; preds = %30
  store i32 0, ptr %9, align 4
  br label %88

88:                                               ; preds = %61, %87
  call void @llvm.lifetime.end.p0(i64 4, ptr %8) #6
  call void @llvm.lifetime.end.p0(i64 8, ptr %7) #6
  call void @llvm.lifetime.end.p0(i64 8, ptr %6) #6
  %89 = load i32, ptr %9, align 4
  switch i32 %89, label %185 [
    i32 0, label %90
    i32 12, label %174
  ]

90:                                               ; preds = %88
  br label %91

91:                                               ; preds = %90
  br label %92

92:                                               ; preds = %91
  br label %93

93:                                               ; preds = %92
  call void @llvm.lifetime.start.p0(i64 8, ptr %10) #6
  %94 = load i32, ptr %4, align 4
  %95 = sext i32 %94 to i64
  store i64 %95, ptr %10, align 8
  call void @llvm.lifetime.start.p0(i64 8, ptr %11) #6
  %96 = load ptr, ptr @acct_gather_options_buf, align 8
  %97 = getelementptr inbounds nuw %struct.buf_t, ptr %96, i32 0, i32 1
  %98 = load ptr, ptr %97, align 8
  store ptr %98, ptr %11, align 8
  call void @llvm.lifetime.start.p0(i64 4, ptr %12) #6
  br label %99

99:                                               ; preds = %157, %118, %93
  %100 = load i64, ptr %10, align 8
  %101 = icmp ugt i64 %100, 0
  br i1 %101, label %102, label %158

102:                                              ; preds = %99
  %103 = load i32, ptr %3, align 4
  %104 = load ptr, ptr %11, align 8
  %105 = load i64, ptr %10, align 8
  %106 = call i64 @write(i32 noundef %103, ptr noundef %104, i64 noundef %105)
  %107 = trunc i64 %106 to i32
  store i32 %107, ptr %12, align 4
  %108 = load i32, ptr %12, align 4
  %109 = icmp slt i32 %108, 0
  br i1 %109, label %110, label %132

110:                                              ; preds = %102
  %111 = call ptr @__errno_location() #8
  %112 = load i32, ptr %111, align 4
  %113 = icmp eq i32 %112, 11
  br i1 %113, label %118, label %114

114:                                              ; preds = %110
  %115 = call ptr @__errno_location() #8
  %116 = load i32, ptr %115, align 4
  %117 = icmp eq i32 %116, 4
  br i1 %117, label %118, label %119

118:                                              ; preds = %114, %110
  br label %99, !llvm.loop !14

119:                                              ; preds = %114
  br label %120

120:                                              ; preds = %119
  br label %121

121:                                              ; preds = %120
  %122 = call i32 @get_log_level()
  %123 = icmp sge i32 %122, 5
  br i1 %123, label %124, label %127

124:                                              ; preds = %121
  %125 = load i64, ptr %10, align 8
  %126 = load i32, ptr %4, align 4
  call void (i32, ptr, ...) @log_var(i32 noundef 5, ptr noundef @.str.6, ptr noundef @.str, i32 noundef 174, ptr noundef @__func__.acct_gather_write_conf, i64 noundef %125, i32 noundef %126)
  br label %127

127:                                              ; preds = %124, %121
  br label %128

128:                                              ; preds = %127
  br label %129

129:                                              ; preds = %128
  br label %130

130:                                              ; preds = %129
  br label %131

131:                                              ; preds = %130
  store i32 12, ptr %9, align 4
  br label %159

132:                                              ; preds = %102
  %133 = load i32, ptr %12, align 4
  %134 = load ptr, ptr %11, align 8
  %135 = sext i32 %133 to i64
  %136 = getelementptr inbounds i8, ptr %134, i64 %135
  store ptr %136, ptr %11, align 8
  %137 = load i32, ptr %12, align 4
  %138 = sext i32 %137 to i64
  %139 = load i64, ptr %10, align 8
  %140 = sub i64 %139, %138
  store i64 %140, ptr %10, align 8
  %141 = load i64, ptr %10, align 8
  %142 = icmp ugt i64 %141, 0
  br i1 %142, label %143, label %156

143:                                              ; preds = %132
  br label %144

144:                                              ; preds = %143
  br label %145

145:                                              ; preds = %144
  %146 = call i32 @get_log_level()
  %147 = icmp sge i32 %146, 7
  br i1 %147, label %148, label %151

148:                                              ; preds = %145
  %149 = load i64, ptr %10, align 8
  %150 = load i32, ptr %4, align 4
  call void (i32, ptr, ...) @log_var(i32 noundef 7, ptr noundef @.str.7, ptr noundef @.str, i32 noundef 174, ptr noundef @__func__.acct_gather_write_conf, i64 noundef %149, i32 noundef %150)
  br label %151

151:                                              ; preds = %148, %145
  br label %152

152:                                              ; preds = %151
  br label %153

153:                                              ; preds = %152
  br label %154

154:                                              ; preds = %153
  br label %155

155:                                              ; preds = %154
  br label %156

156:                                              ; preds = %155, %132
  br label %157

157:                                              ; preds = %156
  br label %99, !llvm.loop !14

158:                                              ; preds = %99
  store i32 0, ptr %9, align 4
  br label %159

159:                                              ; preds = %131, %158
  call void @llvm.lifetime.end.p0(i64 4, ptr %12) #6
  call void @llvm.lifetime.end.p0(i64 8, ptr %11) #6
  call void @llvm.lifetime.end.p0(i64 8, ptr %10) #6
  %160 = load i32, ptr %9, align 4
  switch i32 %160, label %185 [
    i32 0, label %161
    i32 12, label %174
  ]

161:                                              ; preds = %159
  br label %162

162:                                              ; preds = %161
  br label %163

163:                                              ; preds = %162
  br label %164

164:                                              ; preds = %163
  call void @llvm.lifetime.start.p0(i64 4, ptr %13) #6
  %165 = call i32 @pthread_mutex_unlock(ptr noundef @conf_mutex) #6
  store i32 %165, ptr %13, align 4
  %166 = load i32, ptr %13, align 4
  %167 = icmp ne i32 %166, 0
  br i1 %167, label %168, label %171

168:                                              ; preds = %164
  %169 = load i32, ptr %13, align 4
  %170 = call ptr @__errno_location() #8
  store i32 %169, ptr %170, align 4
  call void (ptr, ...) @fatal_abort(ptr noundef @.str.8, ptr noundef @__func__.acct_gather_write_conf) #7
  unreachable

171:                                              ; preds = %164
  call void @llvm.lifetime.end.p0(i64 4, ptr %13) #6
  br label %172

172:                                              ; preds = %171
  br label %173

173:                                              ; preds = %172
  store i32 0, ptr %2, align 4
  store i32 1, ptr %9, align 4
  br label %185

174:                                              ; preds = %159, %88
  br label %175

175:                                              ; preds = %174
  call void @llvm.lifetime.start.p0(i64 4, ptr %14) #6
  %176 = call i32 @pthread_mutex_unlock(ptr noundef @conf_mutex) #6
  store i32 %176, ptr %14, align 4
  %177 = load i32, ptr %14, align 4
  %178 = icmp ne i32 %177, 0
  br i1 %178, label %179, label %182

179:                                              ; preds = %175
  %180 = load i32, ptr %14, align 4
  %181 = call ptr @__errno_location() #8
  store i32 %180, ptr %181, align 4
  call void (ptr, ...) @fatal_abort(ptr noundef @.str.8, ptr noundef @__func__.acct_gather_write_conf) #7
  unreachable

182:                                              ; preds = %175
  call void @llvm.lifetime.end.p0(i64 4, ptr %14) #6
  br label %183

183:                                              ; preds = %182
  br label %184

184:                                              ; preds = %183
  store i32 -1, ptr %2, align 4
  store i32 1, ptr %9, align 4
  br label %185

185:                                              ; preds = %184, %173, %159, %88
  call void @llvm.lifetime.end.p0(i64 4, ptr %4) #6
  %186 = load i32, ptr %2, align 4
  ret i32 %186
}